(lp0
(lp1
I01
aI00
aI00
aI00
aI00
aI00
aI00
aI00
aI00
aI00
aI00
aI00
aI00
aI00
aI00
aI00
aI00
aI00
aI00
aI00
aI00
aI00
aI00
aI00
aI00
aI00
aI00
aI00
aI00
aI00
aI00
aI00
aI00
aI00
aI00
aI00
aI00
aI00
aI00
aI00
aI00
aI01
aI00
aI00
aI00
aI00
aI00
aI00
aI01
aI00
aI00
aI00
aI00
aI00
aI00
aI00
aI00
aI00
aI00
aI00
aI00
aI00
aI00
aI00
aa(lp2
I00
aI01
aI00
aI00
aI00
aI00
aI00
aI00
aI00
aI00
aI00
aI00
aI00
aI00
aI00
aI00
aI01
aI00
aI00
aI00
aI00
aI00
aI00
aI00
aI00
aI00
aI01
aI00
aI00
aI00
aI00
aI00
aI00
aI00
aI00
aI00
aI00
aI00
aI01
aI00
aI00
aI00
aI00
aI00
aI00
aI00
aI00
aI00
aI00
aI01
aI00
aI00
aI00
aI00
aI00
aI00
aI00
aI00
aI00
aI00
aI00
aI00
aI00
aI00
aa(lp3
I00
aI00
aI01
aI00
aI00
aI00
aI00
aI00
aI01
aI00
aI00
aI00
aI01
aI00
aI00
aI00
aI00
aI00
aI00
aI00
aI00
aI00
aI00
aI00
aI00
aI00
aI00
aI00
aI00
aI00
aI00
aI00
aI00
aI00
aI00
aI00
aI00
aI00
aI00
aI00
aI00
aI00
aI00
aI01
aI00
aI00
aI00
aI00
aI00
aI00
aI00
aI00
aI00
aI01
aI00
aI00
aI01
aI00
aI00
aI00
aI00
aI00
aI00
aI00
aa(lp4
I00
aI00
aI00
aI01
aI00
aI00
aI01
aI00
aI00
aI00
aI00
aI00
aI00
aI00
aI00
aI00
aI00
aI00
aI00
aI01
aI00
aI00
aI00
aI00
aI00
aI00
aI00
aI00
aI00
aI01
aI00
aI00
aI00
aI00
aI00
aI00
aI00
aI00
aI00
aI00
aI00
aI00
aI00
aI00
aI00
aI00
aI00
aI00
aI00
aI00
aI00
aI00
aI00
aI00
aI00
aI00
aI00
aI00
aI00
aI00
aI00
aI00
aI00
aI00
aa(lp5
I00
aI00
aI00
aI00
aI01
aI00
aI00
aI00
aI00
aI00
aI00
aI00
aI00
aI00
aI00
aI00
aI00
aI00
aI00
aI00
aI00
aI00
aI00
aI00
aI00
aI01
aI00
aI00
aI00
aI00
aI00
aI00
aI01
aI00
aI00
aI00
aI00
aI00
aI00
aI01
aI00
aI00
aI00
aI00
aI00
aI00
aI00
aI00
aI00
aI00
aI01
aI00
aI00
aI00
aI00
aI00
aI00
aI01
aI01
aI00
aI00
aI00
aI00
aI00
aa(lp6
I00
aI00
aI00
aI00
aI00
aI01
aI00
aI00
aI00
aI00
aI00
aI00
aI00
aI00
aI00
aI00
aI00
aI00
aI00
aI00
aI00
aI00
aI00
aI00
aI00
aI00
aI00
aI00
aI00
aI00
aI00
aI00
aI00
aI01
aI00
aI00
aI00
aI00
aI00
aI00
aI00
aI00
aI00
aI00
aI00
aI00
aI00
aI00
aI00
aI00
aI00
aI00
aI00
aI00
aI00
aI00
aI00
aI00
aI00
aI00
aI00
aI00
aI00
aI00
aa(lp7
I00
aI00
aI00
aI01
aI00
aI00
aI01
aI00
aI00
aI00
aI00
aI00
aI00
aI00
aI00
aI00
aI00
aI00
aI00
aI01
aI00
aI00
aI00
aI00
aI00
aI00
aI00
aI00
aI00
aI01
aI00
aI00
aI00
aI00
aI00
aI00
aI00
aI00
aI00
aI00
aI00
aI00
aI00
aI00
aI00
aI00
aI00
aI01
aI00
aI00
aI00
aI00
aI00
aI00
aI01
aI00
aI00
aI00
aI00
aI00
aI00
aI00
aI00
aI00
aa(lp8
I00
aI00
aI00
aI00
aI00
aI00
aI00
aI01
aI00
aI00
aI00
aI00
aI00
aI00
aI00
aI00
aI00
aI00
aI00
aI00
aI00
aI00
aI00
aI00
aI00
aI00
aI00
aI00
aI00
aI00
aI00
aI00
aI00
aI00
aI00
aI00
aI00
aI00
aI00
aI00
aI00
aI00
aI01
aI00
aI00
aI00
aI00
aI00
aI00
aI00
aI00
aI00
aI00
aI00
aI00
aI00
aI00
aI00
aI00
aI00
aI00
aI00
aI00
aI00
aa(lp9
I00
aI00
aI01
aI00
aI00
aI00
aI00
aI00
aI01
aI01
aI00
aI00
aI01
aI00
aI00
aI00
aI00
aI00
aI00
aI00
aI00
aI00
aI00
aI00
aI00
aI00
aI00
aI00
aI00
aI01
aI00
aI00
aI00
aI00
aI00
aI01
aI00
aI00
aI00
aI00
aI00
aI00
aI00
aI01
aI00
aI00
aI00
aI00
aI00
aI00
aI00
aI00
aI00
aI01
aI00
aI00
aI01
aI00
aI00
aI00
aI01
aI00
aI00
aI00
aa(lp10
I00
aI00
aI00
aI00
aI00
aI00
aI00
aI00
aI01
aI01
aI00
aI00
aI00
aI00
aI00
aI00
aI00
aI00
aI00
aI00
aI00
aI00
aI00
aI00
aI00
aI00
aI00
aI00
aI01
aI00
aI00
aI00
aI00
aI00
aI00
aI01
aI00
aI00
aI00
aI00
aI00
aI00
aI00
aI00
aI00
aI00
aI00
aI01
aI00
aI00
aI00
aI00
aI00
aI00
aI01
aI00
aI01
aI00
aI00
aI00
aI00
aI00
aI00
aI00
aa(lp11
I00
aI00
aI00
aI00
aI00
aI00
aI00
aI00
aI00
aI00
aI01
aI00
aI00
aI00
aI00
aI00
aI00
aI00
aI00
aI00
aI00
aI00
aI00
aI00
aI01
aI00
aI01
aI00
aI00
aI00
aI00
aI00
aI00
aI00
aI00
aI00
aI00
aI00
aI00
aI00
aI00
aI00
aI00
aI00
aI00
aI00
aI00
aI00
aI00
aI01
aI00
aI00
aI00
aI00
aI00
aI00
aI00
aI00
aI00
aI00
aI00
aI00
aI01
aI00
aa(lp12
I00
aI00
aI00
aI00
aI00
aI00
aI00
aI00
aI00
aI00
aI00
aI01
aI00
aI01
aI00
aI00
aI00
aI00
aI00
aI00
aI00
aI01
aI00
aI00
aI00
aI00
aI00
aI00
aI00
aI00
aI00
aI00
aI00
aI00
aI00
aI00
aI00
aI00
aI00
aI00
aI01
aI00
aI01
aI00
aI00
aI00
aI01
aI00
aI00
aI00
aI00
aI00
aI00
aI00
aI00
aI00
aI00
aI00
aI00
aI00
aI00
aI00
aI00
aI00
aa(lp13
I00
aI00
aI01
aI00
aI00
aI00
aI00
aI00
aI01
aI00
aI00
aI00
aI01
aI01
aI00
aI00
aI00
aI00
aI00
aI00
aI01
aI01
aI00
aI00
aI00
aI00
aI00
aI00
aI00
aI00
aI00
aI00
aI00
aI00
aI00
aI00
aI00
aI00
aI00
aI00
aI00
aI00
aI00
aI00
aI00
aI00
aI00
aI00
aI00
aI00
aI00
aI00
aI00
aI01
aI00
aI00
aI01
aI00
aI00
aI00
aI00
aI00
aI00
aI00
aa(lp14
I00
aI00
aI00
aI00
aI00
aI00
aI00
aI00
aI00
aI00
aI00
aI01
aI01
aI01
aI00
aI00
aI00
aI00
aI00
aI00
aI01
aI01
aI00
aI00
aI00
aI00
aI00
aI00
aI00
aI00
aI00
aI00
aI00
aI00
aI00
aI00
aI00
aI00
aI00
aI00
aI01
aI00
aI00
aI00
aI00
aI00
aI01
aI00
aI00
aI00
aI00
aI00
aI00
aI00
aI00
aI00
aI00
aI00
aI00
aI00
aI00
aI00
aI00
aI00
aa(lp15
I00
aI00
aI00
aI00
aI00
aI00
aI00
aI00
aI00
aI00
aI00
aI00
aI00
aI00
aI01
aI00
aI00
aI01
aI00
aI00
aI00
aI00
aI01
aI01
aI00
aI00
aI00
aI00
aI00
aI00
aI00
aI00
aI00
aI00
aI00
aI00
aI01
aI01
aI00
aI01
aI00
aI00
aI00
aI00
aI00
aI00
aI00
aI00
aI00
aI00
aI01
aI00
aI00
aI00
aI00
aI01
aI00
aI00
aI00
aI00
aI00
aI00
aI00
aI00
aa(lp16
I00
aI00
aI00
aI00
aI00
aI00
aI00
aI00
aI00
aI00
aI00
aI00
aI00
aI00
aI00
aI01
aI00
aI00
aI00
aI00
aI00
aI00
aI00
aI00
aI00
aI00
aI00
aI00
aI00
aI00
aI00
aI00
aI00
aI00
aI00
aI00
aI00
aI00
aI00
aI00
aI00
aI00
aI00
aI00
aI00
aI00
aI00
aI00
aI00
aI00
aI00
aI00
aI01
aI00
aI00
aI00
aI00
aI00
aI00
aI00
aI00
aI00
aI00
aI01
aa(lp17
I00
aI01
aI00
aI00
aI00
aI00
aI00
aI00
aI00
aI00
aI00
aI00
aI00
aI00
aI00
aI00
aI01
aI00
aI00
aI00
aI00
aI00
aI00
aI00
aI00
aI00
aI00
aI00
aI00
aI00
aI00
aI00
aI00
aI00
aI00
aI00
aI00
aI00
aI01
aI00
aI00
aI00
aI00
aI00
aI00
aI00
aI01
aI00
aI00
aI00
aI00
aI00
aI00
aI00
aI00
aI00
aI00
aI00
aI00
aI00
aI00
aI00
aI00
aI00
aa(lp18
I00
aI00
aI00
aI00
aI00
aI00
aI00
aI00
aI00
aI00
aI00
aI00
aI00
aI00
aI01
aI00
aI00
aI01
aI00
aI00
aI00
aI00
aI01
aI01
aI00
aI00
aI00
aI00
aI00
aI00
aI00
aI00
aI00
aI00
aI00
aI00
aI00
aI01
aI00
aI00
aI00
aI00
aI00
aI00
aI01
aI00
aI00
aI00
aI00
aI00
aI00
aI00
aI00
aI00
aI00
aI01
aI00
aI00
aI01
aI00
aI00
aI01
aI00
aI00
aa(lp19
I00
aI00
aI00
aI00
aI00
aI00
aI00
aI00
aI00
aI00
aI00
aI00
aI00
aI00
aI00
aI00
aI00
aI00
aI01
aI00
aI00
aI00
aI00
aI00
aI00
aI00
aI00
aI00
aI00
aI00
aI00
aI00
aI00
aI00
aI00
aI00
aI00
aI01
aI00
aI00
aI00
aI00
aI00
aI00
aI00
aI01
aI00
aI00
aI00
aI00
aI00
aI00
aI00
aI00
aI00
aI00
aI00
aI00
aI00
aI01
aI00
aI00
aI00
aI00
aa(lp20
I00
aI00
aI00
aI01
aI00
aI00
aI01
aI00
aI00
aI00
aI00
aI00
aI00
aI00
aI00
aI00
aI00
aI00
aI00
aI01
aI00
aI00
aI00
aI00
aI00
aI00
aI00
aI00
aI00
aI01
aI00
aI00
aI00
aI00
aI00
aI00
aI00
aI00
aI00
aI00
aI00
aI00
aI00
aI00
aI00
aI00
aI00
aI00
aI00
aI00
aI00
aI00
aI00
aI00
aI00
aI00
aI00
aI00
aI00
aI00
aI00
aI00
aI00
aI00
aa(lp21
I00
aI00
aI00
aI00
aI00
aI00
aI00
aI00
aI00
aI00
aI00
aI00
aI01
aI01
aI00
aI00
aI00
aI00
aI00
aI00
aI01
aI01
aI00
aI00
aI00
aI00
aI00
aI00
aI00
aI00
aI00
aI00
aI00
aI00
aI00
aI00
aI00
aI00
aI00
aI00
aI01
aI00
aI01
aI00
aI00
aI00
aI00
aI00
aI00
aI00
aI00
aI00
aI00
aI00
aI00
aI00
aI00
aI00
aI00
aI00
aI00
aI00
aI00
aI00
aa(lp22
I00
aI00
aI00
aI00
aI00
aI00
aI00
aI00
aI00
aI00
aI00
aI01
aI01
aI01
aI00
aI00
aI00
aI00
aI00
aI00
aI01
aI01
aI00
aI00
aI00
aI00
aI00
aI00
aI00
aI00
aI00
aI00
aI00
aI00
aI00
aI00
aI00
aI00
aI00
aI00
aI01
aI00
aI00
aI00
aI00
aI00
aI00
aI00
aI00
aI00
aI00
aI00
aI00
aI00
aI00
aI00
aI00
aI00
aI00
aI00
aI00
aI00
aI00
aI00
aa(lp23
I00
aI00
aI00
aI00
aI00
aI00
aI00
aI00
aI00
aI00
aI00
aI00
aI00
aI00
aI01
aI00
aI00
aI01
aI00
aI00
aI00
aI00
aI01
aI00
aI00
aI00
aI00
aI00
aI00
aI00
aI00
aI00
aI00
aI00
aI00
aI00
aI01
aI00
aI00
aI00
aI00
aI00
aI00
aI00
aI00
aI00
aI00
aI00
aI00
aI00
aI01
aI00
aI00
aI00
aI00
aI01
aI00
aI00
aI00
aI00
aI00
aI00
aI00
aI00
aa(lp24
I00
aI00
aI00
aI00
aI00
aI00
aI00
aI00
aI00
aI00
aI00
aI00
aI00
aI00
aI01
aI00
aI00
aI01
aI00
aI00
aI00
aI00
aI00
aI01
aI00
aI00
aI00
aI00
aI00
aI00
aI00
aI00
aI00
aI00
aI01
aI00
aI00
aI01
aI00
aI00
aI00
aI00
aI00
aI00
aI01
aI00
aI00
aI00
aI00
aI00
aI00
aI00
aI00
aI00
aI00
aI00
aI00
aI00
aI00
aI00
aI00
aI01
aI00
aI00
aa(lp25
I00
aI00
aI00
aI00
aI00
aI00
aI00
aI00
aI00
aI00
aI01
aI00
aI00
aI00
aI00
aI00
aI00
aI00
aI00
aI00
aI00
aI00
aI00
aI00
aI01
aI00
aI01
aI00
aI00
aI00
aI00
aI00
aI00
aI00
aI00
aI00
aI00
aI00
aI00
aI00
aI00
aI00
aI00
aI00
aI00
aI00
aI00
aI00
aI00
aI00
aI00
aI00
aI00
aI00
aI00
aI00
aI00
aI00
aI00
aI00
aI00
aI00
aI00
aI00
aa(lp26
I00
aI00
aI00
aI00
aI01
aI00
aI00
aI00
aI00
aI00
aI00
aI00
aI00
aI00
aI00
aI00
aI00
aI00
aI00
aI00
aI00
aI00
aI00
aI00
aI00
aI01
aI00
aI00
aI00
aI00
aI00
aI00
aI01
aI00
aI00
aI00
aI00
aI00
aI00
aI01
aI00
aI00
aI00
aI00
aI00
aI00
aI00
aI00
aI00
aI00
aI00
aI01
aI00
aI00
aI00
aI00
aI00
aI01
aI01
aI00
aI00
aI00
aI00
aI00
aa(lp27
I00
aI01
aI00
aI00
aI00
aI00
aI00
aI00
aI00
aI00
aI01
aI00
aI00
aI00
aI00
aI00
aI00
aI00
aI00
aI00
aI00
aI00
aI00
aI00
aI01
aI00
aI01
aI00
aI00
aI00
aI00
aI00
aI00
aI00
aI00
aI00
aI00
aI00
aI00
aI00
aI00
aI00
aI00
aI00
aI00
aI00
aI00
aI00
aI00
aI01
aI00
aI00
aI00
aI00
aI00
aI00
aI00
aI00
aI00
aI00
aI00
aI00
aI00
aI00
aa(lp28
I00
aI00
aI00
aI00
aI00
aI00
aI00
aI00
aI00
aI00
aI00
aI00
aI00
aI00
aI00
aI00
aI00
aI00
aI00
aI00
aI00
aI00
aI00
aI00
aI00
aI00
aI00
aI01
aI00
aI00
aI00
aI00
aI00
aI01
aI00
aI00
aI00
aI00
aI00
aI00
aI00
aI00
aI00
aI00
aI00
aI01
aI00
aI00
aI00
aI00
aI00
aI00
aI00
aI00
aI00
aI00
aI00
aI00
aI00
aI01
aI00
aI00
aI00
aI00
aa(lp29
I00
aI00
aI00
aI00
aI00
aI00
aI00
aI00
aI00
aI01
aI00
aI00
aI00
aI00
aI00
aI00
aI00
aI00
aI00
aI00
aI00
aI00
aI00
aI00
aI00
aI00
aI00
aI00
aI01
aI00
aI00
aI00
aI00
aI00
aI00
aI01
aI00
aI00
aI00
aI00
aI00
aI00
aI00
aI00
aI00
aI00
aI00
aI00
aI00
aI00
aI00
aI00
aI00
aI00
aI00
aI00
aI01
aI00
aI00
aI00
aI00
aI00
aI00
aI00
aa(lp30
I00
aI00
aI00
aI01
aI00
aI00
aI01
aI00
aI01
aI00
aI00
aI00
aI00
aI00
aI00
aI00
aI00
aI00
aI00
aI01
aI00
aI00
aI00
aI00
aI00
aI00
aI00
aI00
aI00
aI01
aI00
aI00
aI00
aI00
aI00
aI00
aI00
aI00
aI00
aI00
aI00
aI00
aI00
aI00
aI00
aI00
aI00
aI01
aI00
aI00
aI00
aI00
aI00
aI00
aI00
aI00
aI00
aI00
aI00
aI00
aI00
aI00
aI00
aI00
aa(lp31
I00
aI00
aI00
aI00
aI00
aI00
aI00
aI00
aI00
aI00
aI00
aI00
aI00
aI00
aI00
aI00
aI00
aI00
aI00
aI00
aI00
aI00
aI00
aI00
aI00
aI00
aI00
aI00
aI00
aI00
aI01
aI00
aI00
aI00
aI01
aI00
aI00
aI00
aI00
aI00
aI00
aI00
aI00
aI00
aI00
aI00
aI00
aI00
aI00
aI00
aI00
aI01
aI00
aI00
aI00
aI00
aI00
aI00
aI01
aI00
aI00
aI01
aI00
aI00
aa(lp32
I00
aI00
aI00
aI00
aI00
aI00
aI00
aI00
aI00
aI00
aI00
aI00
aI00
aI00
aI00
aI00
aI00
aI00
aI00
aI00
aI00
aI00
aI00
aI00
aI00
aI00
aI00
aI00
aI00
aI00
aI00
aI01
aI00
aI00
aI00
aI00
aI00
aI00
aI00
aI00
aI00
aI00
aI00
aI01
aI00
aI00
aI00
aI00
aI01
aI00
aI00
aI00
aI00
aI00
aI00
aI00
aI00
aI00
aI00
aI00
aI01
aI00
aI00
aI00
aa(lp33
I00
aI00
aI00
aI00
aI01
aI00
aI00
aI00
aI00
aI00
aI00
aI00
aI00
aI00
aI00
aI00
aI00
aI00
aI00
aI00
aI00
aI00
aI00
aI00
aI00
aI01
aI00
aI00
aI00
aI00
aI00
aI00
aI01
aI00
aI00
aI00
aI00
aI00
aI00
aI01
aI00
aI00
aI00
aI00
aI00
aI00
aI00
aI00
aI00
aI00
aI01
aI00
aI00
aI00
aI00
aI00
aI00
aI01
aI00
aI00
aI00
aI00
aI00
aI00
aa(lp34
I00
aI00
aI00
aI00
aI00
aI01
aI00
aI00
aI00
aI00
aI00
aI00
aI00
aI00
aI00
aI00
aI00
aI00
aI00
aI00
aI00
aI00
aI00
aI00
aI00
aI00
aI00
aI01
aI00
aI00
aI00
aI00
aI00
aI01
aI00
aI00
aI00
aI00
aI00
aI00
aI00
aI00
aI00
aI00
aI00
aI01
aI00
aI00
aI00
aI00
aI00
aI00
aI01
aI00
aI00
aI00
aI00
aI00
aI00
aI00
aI00
aI00
aI00
aI00
aa(lp35
I00
aI00
aI00
aI00
aI00
aI00
aI00
aI00
aI00
aI00
aI00
aI00
aI00
aI00
aI00
aI00
aI00
aI00
aI00
aI00
aI00
aI00
aI00
aI01
aI00
aI00
aI00
aI00
aI00
aI00
aI01
aI00
aI00
aI00
aI01
aI00
aI00
aI00
aI00
aI00
aI00
aI00
aI00
aI00
aI01
aI00
aI00
aI00
aI00
aI00
aI00
aI00
aI00
aI00
aI00
aI00
aI00
aI00
aI00
aI00
aI00
aI01
aI00
aI00
aa(lp36
I00
aI00
aI00
aI00
aI00
aI00
aI00
aI00
aI01
aI01
aI00
aI00
aI00
aI00
aI00
aI00
aI00
aI00
aI00
aI00
aI00
aI00
aI00
aI00
aI00
aI00
aI00
aI00
aI01
aI00
aI00
aI00
aI00
aI00
aI00
aI01
aI00
aI00
aI00
aI00
aI00
aI00
aI00
aI00
aI00
aI00
aI00
aI01
aI00
aI00
aI00
aI00
aI00
aI00
aI01
aI00
aI01
aI00
aI00
aI00
aI00
aI00
aI00
aI00
aa(lp37
I00
aI00
aI00
aI00
aI00
aI00
aI00
aI00
aI00
aI00
aI00
aI00
aI00
aI00
aI01
aI00
aI00
aI00
aI00
aI00
aI00
aI00
aI01
aI00
aI00
aI00
aI00
aI00
aI00
aI00
aI00
aI00
aI00
aI00
aI00
aI00
aI01
aI00
aI00
aI00
aI00
aI00
aI00
aI00
aI00
aI00
aI00
aI00
aI00
aI00
aI00
aI00
aI00
aI00
aI00
aI00
aI00
aI00
aI00
aI00
aI00
aI00
aI00
aI00
aa(lp38
I00
aI00
aI00
aI00
aI00
aI00
aI00
aI00
aI00
aI00
aI00
aI00
aI00
aI00
aI01
aI00
aI00
aI01
aI01
aI00
aI00
aI00
aI00
aI01
aI00
aI00
aI00
aI00
aI00
aI00
aI00
aI00
aI00
aI00
aI00
aI00
aI00
aI01
aI00
aI00
aI00
aI00
aI00
aI00
aI01
aI00
aI00
aI00
aI00
aI00
aI00
aI00
aI00
aI00
aI00
aI01
aI00
aI00
aI00
aI00
aI00
aI01
aI00
aI00
aa(lp39
I00
aI01
aI00
aI00
aI00
aI00
aI00
aI00
aI00
aI00
aI00
aI00
aI00
aI00
aI00
aI00
aI01
aI00
aI00
aI00
aI00
aI00
aI00
aI00
aI00
aI00
aI00
aI00
aI00
aI00
aI00
aI00
aI00
aI00
aI00
aI00
aI00
aI00
aI01
aI00
aI00
aI00
aI00
aI00
aI00
aI00
aI00
aI00
aI00
aI01
aI00
aI00
aI00
aI00
aI00
aI00
aI00
aI00
aI00
aI00
aI00
aI00
aI00
aI00
aa(lp40
I00
aI00
aI00
aI00
aI01
aI00
aI00
aI00
aI00
aI00
aI00
aI00
aI00
aI00
aI01
aI00
aI00
aI00
aI00
aI00
aI00
aI00
aI00
aI00
aI00
aI01
aI00
aI00
aI00
aI00
aI00
aI00
aI01
aI00
aI00
aI00
aI00
aI00
aI00
aI01
aI00
aI00
aI00
aI00
aI00
aI00
aI00
aI00
aI00
aI00
aI01
aI00
aI00
aI00
aI00
aI00
aI00
aI01
aI01
aI00
aI00
aI01
aI00
aI00
aa(lp41
I00
aI00
aI00
aI00
aI00
aI00
aI00
aI00
aI00
aI00
aI00
aI01
aI00
aI01
aI00
aI00
aI00
aI00
aI00
aI00
aI01
aI01
aI00
aI00
aI00
aI00
aI00
aI00
aI00
aI00
aI00
aI00
aI00
aI00
aI00
aI00
aI00
aI00
aI00
aI00
aI01
aI00
aI01
aI00
aI00
aI00
aI00
aI00
aI00
aI00
aI00
aI00
aI00
aI00
aI00
aI00
aI00
aI00
aI00
aI00
aI00
aI00
aI00
aI00
aa(lp42
I01
aI00
aI00
aI00
aI00
aI00
aI00
aI00
aI00
aI00
aI00
aI00
aI00
aI00
aI00
aI00
aI00
aI00
aI00
aI00
aI00
aI00
aI00
aI00
aI00
aI00
aI00
aI00
aI00
aI00
aI00
aI00
aI00
aI00
aI00
aI00
aI00
aI00
aI00
aI00
aI00
aI01
aI00
aI00
aI00
aI00
aI00
aI00
aI01
aI00
aI00
aI00
aI00
aI00
aI00
aI00
aI00
aI00
aI00
aI00
aI00
aI00
aI00
aI00
aa(lp43
I00
aI00
aI00
aI00
aI00
aI00
aI00
aI01
aI00
aI00
aI00
aI01
aI00
aI00
aI00
aI00
aI00
aI00
aI00
aI00
aI01
aI00
aI00
aI00
aI00
aI00
aI00
aI00
aI00
aI00
aI00
aI00
aI00
aI00
aI00
aI00
aI00
aI00
aI00
aI00
aI01
aI00
aI01
aI00
aI00
aI00
aI00
aI00
aI00
aI00
aI00
aI00
aI00
aI00
aI00
aI00
aI00
aI00
aI00
aI00
aI00
aI00
aI00
aI00
aa(lp44
I00
aI00
aI01
aI00
aI00
aI00
aI00
aI00
aI01
aI00
aI00
aI00
aI00
aI00
aI00
aI00
aI00
aI00
aI00
aI00
aI00
aI00
aI00
aI00
aI00
aI00
aI00
aI00
aI00
aI00
aI00
aI01
aI00
aI00
aI00
aI00
aI00
aI00
aI00
aI00
aI00
aI00
aI00
aI01
aI00
aI00
aI00
aI00
aI00
aI00
aI00
aI00
aI00
aI01
aI00
aI00
aI01
aI00
aI00
aI00
aI01
aI00
aI00
aI00
aa(lp45
I00
aI00
aI00
aI00
aI00
aI00
aI00
aI00
aI00
aI00
aI00
aI00
aI00
aI00
aI00
aI00
aI00
aI01
aI00
aI00
aI00
aI00
aI00
aI01
aI00
aI00
aI00
aI00
aI00
aI00
aI00
aI00
aI00
aI00
aI01
aI00
aI00
aI01
aI00
aI00
aI00
aI00
aI00
aI00
aI01
aI00
aI00
aI00
aI00
aI00
aI00
aI00
aI00
aI00
aI00
aI00
aI00
aI00
aI01
aI00
aI00
aI01
aI00
aI00
aa(lp46
I00
aI00
aI00
aI00
aI00
aI00
aI00
aI00
aI00
aI00
aI00
aI00
aI00
aI00
aI00
aI00
aI00
aI00
aI01
aI00
aI00
aI00
aI00
aI00
aI00
aI00
aI00
aI01
aI00
aI00
aI00
aI00
aI00
aI01
aI00
aI00
aI00
aI00
aI00
aI00
aI00
aI00
aI00
aI00
aI00
aI01
aI00
aI00
aI00
aI00
aI00
aI00
aI00
aI00
aI00
aI00
aI00
aI00
aI00
aI01
aI00
aI00
aI00
aI00
aa(lp47
I00
aI00
aI00
aI00
aI00
aI00
aI00
aI00
aI00
aI00
aI00
aI01
aI00
aI01
aI00
aI00
aI01
aI00
aI00
aI00
aI00
aI00
aI00
aI00
aI00
aI00
aI00
aI00
aI00
aI00
aI00
aI00
aI00
aI00
aI00
aI00
aI00
aI00
aI00
aI00
aI00
aI00
aI00
aI00
aI00
aI00
aI01
aI00
aI00
aI00
aI00
aI00
aI00
aI00
aI00
aI00
aI00
aI00
aI00
aI00
aI00
aI00
aI00
aI00
aa(lp48
I00
aI00
aI00
aI00
aI00
aI00
aI01
aI00
aI00
aI01
aI00
aI00
aI00
aI00
aI00
aI00
aI00
aI00
aI00
aI00
aI00
aI00
aI00
aI00
aI00
aI00
aI00
aI00
aI00
aI01
aI00
aI00
aI00
aI00
aI00
aI01
aI00
aI00
aI00
aI00
aI00
aI00
aI00
aI00
aI00
aI00
aI00
aI01
aI00
aI00
aI00
aI00
aI00
aI00
aI01
aI00
aI00
aI00
aI00
aI00
aI00
aI00
aI00
aI00
aa(lp49
I01
aI00
aI00
aI00
aI00
aI00
aI00
aI00
aI00
aI00
aI00
aI00
aI00
aI00
aI00
aI00
aI00
aI00
aI00
aI00
aI00
aI00
aI00
aI00
aI00
aI00
aI00
aI00
aI00
aI00
aI00
aI01
aI00
aI00
aI00
aI00
aI00
aI00
aI00
aI00
aI00
aI01
aI00
aI00
aI00
aI00
aI00
aI00
aI01
aI00
aI00
aI00
aI00
aI00
aI00
aI00
aI00
aI00
aI00
aI00
aI01
aI00
aI00
aI00
aa(lp50
I00
aI01
aI00
aI00
aI00
aI00
aI00
aI00
aI00
aI00
aI01
aI00
aI00
aI00
aI00
aI00
aI00
aI00
aI00
aI00
aI00
aI00
aI00
aI00
aI00
aI00
aI01
aI00
aI00
aI00
aI00
aI00
aI00
aI00
aI00
aI00
aI00
aI00
aI01
aI00
aI00
aI00
aI00
aI00
aI00
aI00
aI00
aI00
aI00
aI01
aI00
aI00
aI00
aI00
aI00
aI00
aI00
aI00
aI00
aI00
aI00
aI00
aI01
aI00
aa(lp51
I00
aI00
aI00
aI00
aI01
aI00
aI00
aI00
aI00
aI00
aI00
aI00
aI00
aI00
aI01
aI00
aI00
aI00
aI00
aI00
aI00
aI00
aI01
aI00
aI00
aI00
aI00
aI00
aI00
aI00
aI00
aI00
aI01
aI00
aI00
aI00
aI00
aI00
aI00
aI01
aI00
aI00
aI00
aI00
aI00
aI00
aI00
aI00
aI00
aI00
aI01
aI00
aI00
aI00
aI00
aI00
aI00
aI01
aI00
aI00
aI00
aI00
aI00
aI00
aa(lp52
I00
aI00
aI00
aI00
aI00
aI00
aI00
aI00
aI00
aI00
aI00
aI00
aI00
aI00
aI00
aI00
aI00
aI00
aI00
aI00
aI00
aI00
aI00
aI00
aI00
aI01
aI00
aI00
aI00
aI00
aI01
aI00
aI00
aI00
aI00
aI00
aI00
aI00
aI00
aI00
aI00
aI00
aI00
aI00
aI00
aI00
aI00
aI00
aI00
aI00
aI00
aI01
aI00
aI00
aI00
aI00
aI00
aI00
aI01
aI00
aI00
aI01
aI00
aI00
aa(lp53
I00
aI00
aI00
aI00
aI00
aI00
aI00
aI00
aI00
aI00
aI00
aI00
aI00
aI00
aI00
aI01
aI00
aI00
aI00
aI00
aI00
aI00
aI00
aI00
aI00
aI00
aI00
aI00
aI00
aI00
aI00
aI00
aI00
aI01
aI00
aI00
aI00
aI00
aI00
aI00
aI00
aI00
aI00
aI00
aI00
aI00
aI00
aI00
aI00
aI00
aI00
aI00
aI01
aI00
aI00
aI00
aI00
aI00
aI00
aI00
aI00
aI00
aI00
aI01
aa(lp54
I00
aI00
aI01
aI00
aI00
aI00
aI00
aI00
aI01
aI00
aI00
aI00
aI01
aI00
aI00
aI00
aI00
aI00
aI00
aI00
aI00
aI00
aI00
aI00
aI00
aI00
aI00
aI00
aI00
aI00
aI00
aI00
aI00
aI00
aI00
aI00
aI00
aI00
aI00
aI00
aI00
aI00
aI00
aI01
aI00
aI00
aI00
aI00
aI00
aI00
aI00
aI00
aI00
aI01
aI00
aI00
aI01
aI00
aI00
aI00
aI00
aI00
aI00
aI00
aa(lp55
I00
aI00
aI00
aI00
aI00
aI00
aI01
aI00
aI00
aI01
aI00
aI00
aI00
aI00
aI00
aI00
aI00
aI00
aI00
aI00
aI00
aI00
aI00
aI00
aI00
aI00
aI00
aI00
aI00
aI00
aI00
aI00
aI00
aI00
aI00
aI01
aI00
aI00
aI00
aI00
aI00
aI00
aI00
aI00
aI00
aI00
aI00
aI01
aI00
aI00
aI00
aI00
aI00
aI00
aI01
aI00
aI00
aI00
aI00
aI00
aI00
aI00
aI00
aI00
aa(lp56
I00
aI00
aI00
aI00
aI00
aI00
aI00
aI00
aI00
aI00
aI00
aI00
aI00
aI00
aI01
aI00
aI00
aI01
aI00
aI00
aI00
aI00
aI01
aI00
aI00
aI00
aI00
aI00
aI00
aI00
aI00
aI00
aI00
aI00
aI00
aI00
aI00
aI01
aI00
aI00
aI00
aI00
aI00
aI00
aI00
aI00
aI00
aI00
aI00
aI00
aI00
aI00
aI00
aI00
aI00
aI01
aI00
aI00
aI00
aI00
aI00
aI00
aI00
aI00
aa(lp57
I00
aI00
aI01
aI00
aI00
aI00
aI00
aI00
aI01
aI01
aI00
aI00
aI01
aI00
aI00
aI00
aI00
aI00
aI00
aI00
aI00
aI00
aI00
aI00
aI00
aI00
aI00
aI00
aI01
aI00
aI00
aI00
aI00
aI00
aI00
aI01
aI00
aI00
aI00
aI00
aI00
aI00
aI00
aI01
aI00
aI00
aI00
aI00
aI00
aI00
aI00
aI00
aI00
aI01
aI00
aI00
aI01
aI00
aI00
aI00
aI00
aI00
aI00
aI00
aa(lp58
I00
aI00
aI00
aI00
aI01
aI00
aI00
aI00
aI00
aI00
aI00
aI00
aI00
aI00
aI00
aI00
aI00
aI00
aI00
aI00
aI00
aI00
aI00
aI00
aI00
aI01
aI00
aI00
aI00
aI00
aI00
aI00
aI01
aI00
aI00
aI00
aI00
aI00
aI00
aI01
aI00
aI00
aI00
aI00
aI00
aI00
aI00
aI00
aI00
aI00
aI01
aI00
aI00
aI00
aI00
aI00
aI00
aI01
aI01
aI00
aI00
aI00
aI00
aI00
aa(lp59
I00
aI00
aI00
aI00
aI01
aI00
aI00
aI00
aI00
aI00
aI00
aI00
aI00
aI00
aI00
aI00
aI00
aI01
aI00
aI00
aI00
aI00
aI00
aI00
aI00
aI01
aI00
aI00
aI00
aI00
aI01
aI00
aI00
aI00
aI00
aI00
aI00
aI00
aI00
aI01
aI00
aI00
aI00
aI00
aI01
aI00
aI00
aI00
aI00
aI00
aI00
aI01
aI00
aI00
aI00
aI00
aI00
aI01
aI01
aI00
aI00
aI01
aI00
aI00
aa(lp60
I00
aI00
aI00
aI00
aI00
aI00
aI00
aI00
aI00
aI00
aI00
aI00
aI00
aI00
aI00
aI00
aI00
aI00
aI01
aI00
aI00
aI00
aI00
aI00
aI00
aI00
aI00
aI01
aI00
aI00
aI00
aI00
aI00
aI00
aI00
aI00
aI00
aI00
aI00
aI00
aI00
aI00
aI00
aI00
aI00
aI01
aI00
aI00
aI00
aI00
aI00
aI00
aI00
aI00
aI00
aI00
aI00
aI00
aI00
aI01
aI00
aI00
aI00
aI00
aa(lp61
I00
aI00
aI00
aI00
aI00
aI00
aI00
aI00
aI01
aI00
aI00
aI00
aI00
aI00
aI00
aI00
aI00
aI00
aI00
aI00
aI00
aI00
aI00
aI00
aI00
aI00
aI00
aI00
aI00
aI00
aI00
aI01
aI00
aI00
aI00
aI00
aI00
aI00
aI00
aI00
aI00
aI00
aI00
aI01
aI00
aI00
aI00
aI00
aI01
aI00
aI00
aI00
aI00
aI00
aI00
aI00
aI00
aI00
aI00
aI00
aI01
aI00
aI00
aI00
aa(lp62
I00
aI00
aI00
aI00
aI00
aI00
aI00
aI00
aI00
aI00
aI00
aI00
aI00
aI00
aI00
aI00
aI00
aI01
aI00
aI00
aI00
aI00
aI00
aI01
aI00
aI00
aI00
aI00
aI00
aI00
aI01
aI00
aI00
aI00
aI01
aI00
aI00
aI01
aI00
aI01
aI00
aI00
aI00
aI00
aI01
aI00
aI00
aI00
aI00
aI00
aI00
aI01
aI00
aI00
aI00
aI00
aI00
aI00
aI01
aI00
aI00
aI01
aI00
aI00
aa(lp63
I00
aI00
aI00
aI00
aI00
aI00
aI00
aI00
aI00
aI00
aI01
aI00
aI00
aI00
aI00
aI00
aI00
aI00
aI00
aI00
aI00
aI00
aI00
aI00
aI00
aI00
aI00
aI00
aI00
aI00
aI00
aI00
aI00
aI00
aI00
aI00
aI00
aI00
aI00
aI00
aI00
aI00
aI00
aI00
aI00
aI00
aI00
aI00
aI00
aI01
aI00
aI00
aI00
aI00
aI00
aI00
aI00
aI00
aI00
aI00
aI00
aI00
aI01
aI00
aa(lp64
I00
aI00
aI00
aI00
aI00
aI00
aI00
aI00
aI00
aI00
aI00
aI00
aI00
aI00
aI00
aI01
aI00
aI00
aI00
aI00
aI00
aI00
aI00
aI00
aI00
aI00
aI00
aI00
aI00
aI00
aI00
aI00
aI00
aI00
aI00
aI00
aI00
aI00
aI00
aI00
aI00
aI00
aI00
aI00
aI00
aI00
aI00
aI00
aI00
aI00
aI00
aI00
aI01
aI00
aI00
aI00
aI00
aI00
aI00
aI00
aI00
aI00
aI00
aI01
aa.